target datalayout = "e-m:e-p270:32:32-p271:32:32-p272:64:64-i64:64-i128:128-f80:128-n8:16:32:64-S128"
target triple = "x86_64-pc-linux-gnu"

%struct.Vec_Ptr_t_ = type { i32, i32, ptr }
%struct.Vec_Wec_t_ = type { i32, i32, ptr }
%struct.Vec_Int_t_ = type { i32, i32, ptr }
%union.anon = type { i32 }

@.str.24 = private unnamed_addr constant [4 x i8] c"-%c\00", align 1
@.str.25 = private unnamed_addr constant [3 x i8] c"%d\00", align 1
@.str.26 = private unnamed_addr constant [5 x i8] c"%.3f\00", align 1
@.str.27 = private unnamed_addr constant [61 x i8] c"Creating all possible settings to be used by the autotuner:\0A\00", align 1
@.str.28 = private unnamed_addr constant [10 x i8] c"autotuner\00", align 1
@.str.29 = private unnamed_addr constant [33 x i8] c"Finished creating %d settings.\0A\0A\00", align 1

; Function Attrs: inlinehint nounwind uwtable
define internal i32 @Vec_PtrSize(ptr noundef %0) #3 {
  %2 = alloca ptr, align 8
  store ptr %0, ptr %2, align 8, !tbaa !17
  %3 = load ptr, ptr %2, align 8, !tbaa !17
  %4 = getelementptr inbounds nuw %struct.Vec_Ptr_t_, ptr %3, i32 0, i32 1
  %5 = load i32, ptr %4, align 4, !tbaa !24
  ret i32 %5
}

; Function Attrs: inlinehint nounwind uwtable
define internal float @Abc_Int2Float(i32 noundef %0) #3 {
  %2 = alloca i32, align 4
  %3 = alloca %union.anon, align 4
  store i32 %0, ptr %2, align 4, !tbaa !19
  call void @llvm.lifetime.start.p0(i64 4, ptr %3) #14
  %4 = load i32, ptr %2, align 4, !tbaa !19
  store i32 %4, ptr %3, align 4, !tbaa !80
  %5 = load float, ptr %3, align 4, !tbaa !80
  call void @llvm.lifetime.end.p0(i64 4, ptr %3) #14
  ret float %5
}

; Function Attrs: inlinehint nounwind uwtable
define internal i32 @Vec_IntEntry(ptr noundef %0, i32 noundef %1) #3 {
  %3 = alloca ptr, align 8
  %4 = alloca i32, align 4
  store ptr %0, ptr %3, align 8, !tbaa !70
  store i32 %1, ptr %4, align 4, !tbaa !19
  %5 = load ptr, ptr %3, align 8, !tbaa !70
  %6 = getelementptr inbounds nuw %struct.Vec_Int_t_, ptr %5, i32 0, i32 2
  %7 = load ptr, ptr %6, align 8, !tbaa !79
  %8 = load i32, ptr %4, align 4, !tbaa !19
  %9 = sext i32 %8 to i64
  %10 = getelementptr inbounds i32, ptr %7, i64 %9
  %11 = load i32, ptr %10, align 4, !tbaa !19
  ret i32 %11
}

; Function Attrs: inlinehint nounwind uwtable
define internal i32 @Vec_IntSize(ptr noundef %0) #3 {
  %2 = alloca ptr, align 8
  store ptr %0, ptr %2, align 8, !tbaa !70
  %3 = load ptr, ptr %2, align 8, !tbaa !70
  %4 = getelementptr inbounds nuw %struct.Vec_Int_t_, ptr %3, i32 0, i32 1
  %5 = load i32, ptr %4, align 4, !tbaa !77
  ret i32 %5
}

; Function Attrs: inlinehint nounwind uwtable
define internal ptr @Vec_WecEntry(ptr noundef %0, i32 noundef %1) #3 {
  %3 = alloca ptr, align 8
  %4 = alloca i32, align 4
  store ptr %0, ptr %3, align 8, !tbaa !67
  store i32 %1, ptr %4, align 4, !tbaa !19
  %5 = load ptr, ptr %3, align 8, !tbaa !67
  %6 = getelementptr inbounds nuw %struct.Vec_Wec_t_, ptr %5, i32 0, i32 2
  %7 = load ptr, ptr %6, align 8, !tbaa !76
  %8 = load i32, ptr %4, align 4, !tbaa !19
  %9 = sext i32 %8 to i64
  %10 = getelementptr inbounds %struct.Vec_Int_t_, ptr %7, i64 %9
  ret ptr %10
}

; Function Attrs: inlinehint nounwind uwtable
define internal ptr @Vec_PtrAlloc(i32 noundef %0) #3 {
  %2 = alloca i32, align 4
  %3 = alloca ptr, align 8
  store i32 %0, ptr %2, align 4, !tbaa !19
  call void @llvm.lifetime.start.p0(i64 8, ptr %3) #14
  %4 = call noalias ptr @malloc(i64 noundef 16) #16
  store ptr %4, ptr %3, align 8, !tbaa !17
  %5 = load i32, ptr %2, align 4, !tbaa !19
  %6 = icmp sgt i32 %5, 0
  br i1 %6, label %7, label %11

7:                                                ; preds = %1
  %8 = load i32, ptr %2, align 4, !tbaa !19
  %9 = icmp slt i32 %8, 8
  br i1 %9, label %10, label %11

10:                                               ; preds = %7
  store i32 8, ptr %2, align 4, !tbaa !19
  br label %11

11:                                               ; preds = %10, %7, %1
  %12 = load ptr, ptr %3, align 8, !tbaa !17
  %13 = getelementptr inbounds nuw %struct.Vec_Ptr_t_, ptr %12, i32 0, i32 1
  store i32 0, ptr %13, align 4, !tbaa !24
  %14 = load i32, ptr %2, align 4, !tbaa !19
  %15 = load ptr, ptr %3, align 8, !tbaa !17
  %16 = getelementptr inbounds nuw %struct.Vec_Ptr_t_, ptr %15, i32 0, i32 0
  store i32 %14, ptr %16, align 8, !tbaa !44
  %17 = load ptr, ptr %3, align 8, !tbaa !17
  %18 = getelementptr inbounds nuw %struct.Vec_Ptr_t_, ptr %17, i32 0, i32 0
  %19 = load i32, ptr %18, align 8, !tbaa !44
  %20 = icmp ne i32 %19, 0
  br i1 %20, label %21, label %28

21:                                               ; preds = %11
  %22 = load ptr, ptr %3, align 8, !tbaa !17
  %23 = getelementptr inbounds nuw %struct.Vec_Ptr_t_, ptr %22, i32 0, i32 0
  %24 = load i32, ptr %23, align 8, !tbaa !44
  %25 = sext i32 %24 to i64
  %26 = mul i64 8, %25
  %27 = call noalias ptr @malloc(i64 noundef %26) #16
  br label %29

28:                                               ; preds = %11
  br label %29

29:                                               ; preds = %28, %21
  %30 = phi ptr [ %27, %21 ], [ null, %28 ]
  %31 = load ptr, ptr %3, align 8, !tbaa !17
  %32 = getelementptr inbounds nuw %struct.Vec_Ptr_t_, ptr %31, i32 0, i32 2
  store ptr %30, ptr %32, align 8, !tbaa !26
  %33 = load ptr, ptr %3, align 8, !tbaa !17
  call void @llvm.lifetime.end.p0(i64 8, ptr %3) #14
  ret ptr %33
}

; Function Attrs: nounwind uwtable
define ptr @Cmf_CreateOptions(ptr noundef %0) #0 {
  %2 = alloca ptr, align 8
  %3 = alloca [100 x [20 x i8]], align 16
  %4 = alloca i32, align 4
  %5 = alloca i32, align 4
  %6 = alloca i32, align 4
  %7 = alloca i32, align 4
  %8 = alloca ptr, align 8
  %9 = alloca ptr, align 8
  %10 = alloca float, align 4
  %11 = alloca i32, align 4
  store ptr %0, ptr %2, align 8, !tbaa !67
  call void @llvm.lifetime.start.p0(i64 2000, ptr %3) #14
  call void @llvm.lifetime.start.p0(i64 4, ptr %4) #14
  call void @llvm.lifetime.start.p0(i64 4, ptr %5) #14
  call void @llvm.lifetime.start.p0(i64 4, ptr %6) #14
  call void @llvm.lifetime.start.p0(i64 4, ptr %7) #14
  store i32 0, ptr %7, align 4, !tbaa !19
  call void @llvm.lifetime.start.p0(i64 8, ptr %8) #14
  %12 = call ptr @Vec_PtrAlloc(i32 noundef 100)
  store ptr %12, ptr %8, align 8, !tbaa !17
  call void @llvm.lifetime.start.p0(i64 8, ptr %9) #14
  %13 = load ptr, ptr %2, align 8, !tbaa !67
  %14 = call ptr @Vec_WecEntry(ptr noundef %13, i32 noundef 0)
  store ptr %14, ptr %9, align 8, !tbaa !70
  %15 = call i32 (ptr, ...) @printf(ptr noundef @.str.27)
  %16 = load i32, ptr %7, align 4, !tbaa !19
  %17 = add nsw i32 %16, 1
  store i32 %17, ptr %7, align 4, !tbaa !19
  %18 = sext i32 %16 to i64
  %19 = getelementptr inbounds [100 x [20 x i8]], ptr %3, i64 0, i64 %18
  %20 = getelementptr inbounds [20 x i8], ptr %19, i64 0, i64 0
  %21 = call i32 (ptr, ptr, ...) @sprintf(ptr noundef %20, ptr noundef @.str.28) #14
  store i32 0, ptr %6, align 4, !tbaa !19
  br label %22

22:                                               ; preds = %81, %1
  %23 = load i32, ptr %6, align 4, !tbaa !19
  %24 = add nsw i32 %23, 1
  %25 = load ptr, ptr %9, align 8, !tbaa !70
  %26 = call i32 @Vec_IntSize(ptr noundef %25)
  %27 = icmp slt i32 %24, %26
  br i1 %27, label %28, label %37

28:                                               ; preds = %22
  %29 = load ptr, ptr %9, align 8, !tbaa !70
  %30 = load i32, ptr %6, align 4, !tbaa !19
  %31 = call i32 @Vec_IntEntry(ptr noundef %29, i32 noundef %30)
  store i32 %31, ptr %4, align 4, !tbaa !19
  br i1 true, label %32, label %37

32:                                               ; preds = %28
  %33 = load ptr, ptr %9, align 8, !tbaa !70
  %34 = load i32, ptr %6, align 4, !tbaa !19
  %35 = add nsw i32 %34, 1
  %36 = call i32 @Vec_IntEntry(ptr noundef %33, i32 noundef %35)
  store i32 %36, ptr %5, align 4, !tbaa !19
  br label %37

37:                                               ; preds = %32, %28, %22
  %38 = phi i1 [ false, %28 ], [ false, %22 ], [ true, %32 ]
  br i1 %38, label %39, label %84

39:                                               ; preds = %37
  call void @llvm.lifetime.start.p0(i64 4, ptr %10) #14
  %40 = load i32, ptr %5, align 4, !tbaa !19
  %41 = call float @Abc_Int2Float(i32 noundef %40)
  store float %41, ptr %10, align 4, !tbaa !72
  %42 = load i32, ptr %7, align 4, !tbaa !19
  %43 = add nsw i32 %42, 1
  store i32 %43, ptr %7, align 4, !tbaa !19
  %44 = sext i32 %42 to i64
  %45 = getelementptr inbounds [100 x [20 x i8]], ptr %3, i64 0, i64 %44
  %46 = getelementptr inbounds [20 x i8], ptr %45, i64 0, i64 0
  %47 = load i32, ptr %4, align 4, !tbaa !19
  %48 = call i32 (ptr, ptr, ...) @sprintf(ptr noundef %46, ptr noundef @.str.24, i32 noundef %47) #14
  %49 = load float, ptr %10, align 4, !tbaa !72
  %50 = fpext float %49 to double
  %51 = fcmp olt double %50, 0.000000e+00
  br i1 %51, label %52, label %53

52:                                               ; preds = %39
  store i32 4, ptr %11, align 4
  br label %78

53:                                               ; preds = %39
  %54 = load float, ptr %10, align 4, !tbaa !72
  %55 = load float, ptr %10, align 4, !tbaa !72
  %56 = fptosi float %55 to i32
  %57 = sitofp i32 %56 to float
  %58 = fcmp oeq float %54, %57
  br i1 %58, label %59, label %68

59:                                               ; preds = %53
  %60 = load i32, ptr %7, align 4, !tbaa !19
  %61 = add nsw i32 %60, 1
  store i32 %61, ptr %7, align 4, !tbaa !19
  %62 = sext i32 %60 to i64
  %63 = getelementptr inbounds [100 x [20 x i8]], ptr %3, i64 0, i64 %62
  %64 = getelementptr inbounds [20 x i8], ptr %63, i64 0, i64 0
  %65 = load float, ptr %10, align 4, !tbaa !72
  %66 = fptosi float %65 to i32
  %67 = call i32 (ptr, ptr, ...) @sprintf(ptr noundef %64, ptr noundef @.str.25, i32 noundef %66) #14
  br label %77

68:                                               ; preds = %53
  %69 = load i32, ptr %7, align 4, !tbaa !19
  %70 = add nsw i32 %69, 1
  store i32 %70, ptr %7, align 4, !tbaa !19
  %71 = sext i32 %69 to i64
  %72 = getelementptr inbounds [100 x [20 x i8]], ptr %3, i64 0, i64 %71
  %73 = getelementptr inbounds [20 x i8], ptr %72, i64 0, i64 0
  %74 = load float, ptr %10, align 4, !tbaa !72
  %75 = fpext float %74 to double
  %76 = call i32 (ptr, ptr, ...) @sprintf(ptr noundef %73, ptr noundef @.str.26, double noundef %75) #14
  br label %77

77:                                               ; preds = %68, %59
  store i32 0, ptr %11, align 4
  br label %78

78:                                               ; preds = %77, %52
  call void @llvm.lifetime.end.p0(i64 4, ptr %10) #14
  %79 = load i32, ptr %11, align 4
  switch i32 %79, label %94 [
    i32 0, label %80
    i32 4, label %81
  ]

80:                                               ; preds = %78
  br label %81

81:                                               ; preds = %80, %78
  %82 = load i32, ptr %6, align 4, !tbaa !19
  %83 = add nsw i32 %82, 2
  store i32 %83, ptr %6, align 4, !tbaa !19
  br label %22, !llvm.loop !81

84:                                               ; preds = %37
  %85 = load ptr, ptr %2, align 8, !tbaa !67
  %86 = getelementptr inbounds [100 x [20 x i8]], ptr %3, i64 0, i64 0
  %87 = load i32, ptr %7, align 4, !tbaa !19
  %88 = load ptr, ptr %8, align 8, !tbaa !17
  call void @Cmf_CreateOptions_rec(ptr noundef %85, i32 noundef 1, ptr noundef %86, i32 noundef %87, ptr noundef %88)
  %89 = load ptr, ptr %8, align 8, !tbaa !17
  %90 = call i32 @Vec_PtrSize(ptr noundef %89)
  %91 = sdiv i32 %90, 2
  %92 = call i32 (ptr, ...) @printf(ptr noundef @.str.29, i32 noundef %91)
  %93 = load ptr, ptr %8, align 8, !tbaa !17
  store i32 1, ptr %11, align 4
  call void @llvm.lifetime.end.p0(i64 8, ptr %9) #14
  call void @llvm.lifetime.end.p0(i64 8, ptr %8) #14
  call void @llvm.lifetime.end.p0(i64 4, ptr %7) #14
  call void @llvm.lifetime.end.p0(i64 4, ptr %6) #14
  call void @llvm.lifetime.end.p0(i64 4, ptr %5) #14
  call void @llvm.lifetime.end.p0(i64 4, ptr %4) #14
  call void @llvm.lifetime.end.p0(i64 2000, ptr %3) #14
  ret ptr %93

94:                                               ; preds = %78
  unreachable
}