; Function Attrs: nounwind uwtable
define noundef ptr @Cmf_CreateOptions(ptr noundef %0) local_unnamed_addr #2 {
  %2 = alloca [100 x [20 x i8]], align 16
  call void @llvm.lifetime.start.p0(i64 2000, ptr nonnull %2) #22
  %3 = tail call noalias dereferenceable_or_null(16) ptr @malloc(i64 noundef 16) #24
  %4 = getelementptr inbounds nuw i8, ptr %3, i64 4
  store i32 0, ptr %4, align 4, !tbaa !14
  store i32 100, ptr %3, align 8, !tbaa !33
  %5 = tail call noalias dereferenceable_or_null(800) ptr @malloc(i64 noundef 800) #24
  %6 = getelementptr inbounds nuw i8, ptr %3, i64 8
  store ptr %5, ptr %6, align 8, !tbaa !17
  %7 = getelementptr i8, ptr %0, i64 8
  %.val26 = load ptr, ptr %7, align 8, !tbaa !64
  %puts = tail call i32 @puts(ptr nonnull dereferenceable(1) @str.1)
  call void @llvm.memcpy.p0.p0.i64(ptr noundef nonnull align 16 dereferenceable(10) %2, ptr noundef nonnull align 1 dereferenceable(10) @.str.28, i64 10, i1 false)
  %8 = getelementptr i8, ptr %.val26, i64 4
  %.val2730 = load i32, ptr %8, align 4, !tbaa !65
  %9 = icmp sgt i32 %.val2730, 1
  br i1 %9, label %.lr.ph, label %.critedge

.lr.ph:                                           ; preds = %1
  %10 = getelementptr i8, ptr %.val26, i64 8
  br label %11

11:                                               ; preds = %.lr.ph, %34
  %indvars.iv = phi i64 [ 0, %.lr.ph ], [ %indvars.iv.next, %34 ]
  %.02331 = phi i32 [ 1, %.lr.ph ], [ %.1, %34 ]
  %12 = or disjoint i64 %indvars.iv, 1
  %.val29 = load ptr, ptr %10, align 8, !tbaa !68
  %13 = getelementptr inbounds nuw i32, ptr %.val29, i64 %indvars.iv
  %14 = load i32, ptr %13, align 4, !tbaa !21
  %15 = getelementptr inbounds nuw i32, ptr %.val29, i64 %12
  %16 = load float, ptr %15, align 4, !tbaa !21
  %17 = add nsw i32 %.02331, 1
  %18 = sext i32 %.02331 to i64
  %19 = getelementptr inbounds [100 x [20 x i8]], ptr %2, i64 0, i64 %18
  %20 = call i32 (ptr, ptr, ...) @sprintf(ptr noundef nonnull dereferenceable(1) %19, ptr noundef nonnull dereferenceable(1) @.str.24, i32 noundef %14) #22
  %21 = fpext float %16 to double
  %22 = fcmp olt float %16, 0.000000e+00
  br i1 %22, label %34, label %23

23:                                               ; preds = %11
  %24 = fptosi float %16 to i32
  %25 = sitofp i32 %24 to float
  %26 = fcmp oeq float %16, %25
  %27 = sext i32 %17 to i64
  %28 = getelementptr inbounds [100 x [20 x i8]], ptr %2, i64 0, i64 %27
  br i1 %26, label %29, label %31

29:                                               ; preds = %23
  %30 = call i32 (ptr, ptr, ...) @sprintf(ptr noundef nonnull dereferenceable(1) %28, ptr noundef nonnull dereferenceable(1) @.str.25, i32 noundef %24) #22
  br label %33

31:                                               ; preds = %23
  %32 = call i32 (ptr, ptr, ...) @sprintf(ptr noundef nonnull dereferenceable(1) %28, ptr noundef nonnull dereferenceable(1) @.str.26, double noundef %21) #22
  br label %33

33:                                               ; preds = %31, %29
  %.2 = add nsw i32 %.02331, 2
  br label %34

34:                                               ; preds = %11, %33
  %.1 = phi i32 [ %.2, %33 ], [ %17, %11 ]
  %indvars.iv.next = add nuw nsw i64 %indvars.iv, 2
  %.val27 = load i32, ptr %8, align 4, !tbaa !65
  %35 = trunc i64 %indvars.iv.next to i32
  %36 = or disjoint i32 %35, 1
  %37 = icmp slt i32 %36, %.val27
  br i1 %37, label %11, label %.critedge, !llvm.loop !70

.critedge:                                        ; preds = %34, %1
  %.023.lcssa = phi i32 [ 1, %1 ], [ %.1, %34 ]
  call void @Cmf_CreateOptions_rec(ptr noundef %0, i32 noundef 1, ptr noundef nonnull %2, i32 noundef %.023.lcssa, ptr noundef nonnull %3)
  %.val = load i32, ptr %4, align 4, !tbaa !14
  %38 = sdiv i32 %.val, 2
  %39 = call i32 (ptr, ...) @printf(ptr noundef nonnull dereferenceable(1) @.str.29, i32 noundef %38)
  call void @llvm.lifetime.end.p0(i64 2000, ptr nonnull %2) #22
  ret ptr %3
}